target datalayout = "e-m:e-p270:32:32-p271:32:32-p272:64:64-i64:64-i128:128-f80:128-n8:16:32:64-S128"
target triple = "x86_64-pc-linux-gnu"

%"class.__gnu_cxx::__normal_iterator.36" = type { ptr }
%"class.zxing::Ref.21" = type { ptr }
%"class.zxing::Counted" = type <{ ptr, i32, [4 x i8] }>
%"class.zxing::qrcode::(anonymous namespace)::CountComparator" = type { i8 }
%"struct.__gnu_cxx::__ops::_Val_comp_iter.82" = type { %"class.zxing::qrcode::(anonymous namespace)::CountComparator" }

; Function Attrs: mustprogress nounwind uwtable
define linkonce_odr hidden noundef ptr @_ZNK5zxing3RefINS_6qrcode13FinderPatternEEptEv(ptr noundef nonnull align 8 dereferenceable(8) %0) #1 comdat align 2 {
  %2 = alloca ptr, align 8
  store ptr %0, ptr %2, align 8
  %3 = load ptr, ptr %2, align 8
  %4 = getelementptr inbounds %"class.zxing::Ref.21", ptr %3, i32 0, i32 0
  %5 = load ptr, ptr %4, align 8
  ret ptr %5
}

; Function Attrs: mustprogress nounwind uwtable
define linkonce_odr hidden noundef ptr @_ZN5zxing7Counted6retainEv(ptr noundef nonnull align 8 dereferenceable(12) %0) #1 comdat align 2 {
  %2 = alloca ptr, align 8
  store ptr %0, ptr %2, align 8
  %3 = load ptr, ptr %2, align 8
  %4 = getelementptr inbounds %"class.zxing::Counted", ptr %3, i32 0, i32 1
  %5 = load i32, ptr %4, align 8
  %6 = add i32 %5, 1
  store i32 %6, ptr %4, align 8
  ret ptr %3
}

; Function Attrs: mustprogress nounwind uwtable
define linkonce_odr hidden void @_ZN5zxing7Counted7releaseEv(ptr noundef nonnull align 8 dereferenceable(12) %0) #1 comdat align 2 {
  %2 = alloca ptr, align 8
  store ptr %0, ptr %2, align 8
  %3 = load ptr, ptr %2, align 8
  %4 = getelementptr inbounds %"class.zxing::Counted", ptr %3, i32 0, i32 1
  %5 = load i32, ptr %4, align 8
  %6 = add i32 %5, -1
  store i32 %6, ptr %4, align 8
  %7 = getelementptr inbounds %"class.zxing::Counted", ptr %3, i32 0, i32 1
  %8 = load i32, ptr %7, align 8
  %9 = icmp eq i32 %8, 0
  br i1 %9, label %10, label %18

10:                                               ; preds = %1
  %11 = getelementptr inbounds %"class.zxing::Counted", ptr %3, i32 0, i32 1
  store i32 -559026175, ptr %11, align 8
  %12 = icmp eq ptr %3, null
  br i1 %12, label %17, label %13

13:                                               ; preds = %10
  %14 = load ptr, ptr %3, align 8
  %15 = getelementptr inbounds ptr, ptr %14, i64 1
  %16 = load ptr, ptr %15, align 8
  call void %16(ptr noundef nonnull align 8 dereferenceable(12) %3) #12
  br label %17

17:                                               ; preds = %13, %10
  br label %18

18:                                               ; preds = %17, %1
  ret void
}

; Function Attrs: mustprogress uwtable
define internal noundef zeroext i1 @_ZN5zxing6qrcode12_GLOBAL__N_115CountComparatorclENS_3RefINS0_13FinderPatternEEES5_(ptr noundef nonnull align 1 dereferenceable(1) %0, ptr noundef %1, ptr noundef %2) #0 align 2 {
  %4 = alloca ptr, align 8
  %5 = alloca ptr, align 8
  %6 = alloca ptr, align 8
  store ptr %0, ptr %4, align 8
  store ptr %1, ptr %5, align 8
  store ptr %2, ptr %6, align 8
  %7 = call noundef ptr @_ZNK5zxing3RefINS_6qrcode13FinderPatternEEptEv(ptr noundef nonnull align 8 dereferenceable(8) %1)
  %8 = call noundef i32 @_ZNK5zxing6qrcode13FinderPattern8getCountEv(ptr noundef nonnull align 8 dereferenceable(40) %7)
  %9 = call noundef ptr @_ZNK5zxing3RefINS_6qrcode13FinderPatternEEptEv(ptr noundef nonnull align 8 dereferenceable(8) %2)
  %10 = call noundef i32 @_ZNK5zxing6qrcode13FinderPattern8getCountEv(ptr noundef nonnull align 8 dereferenceable(40) %9)
  %11 = icmp sgt i32 %8, %10
  ret i1 %11
}

; Function Attrs: mustprogress nounwind uwtable
define linkonce_odr hidden void @_ZN5zxing3RefINS_6qrcode13FinderPatternEE5resetEPS2_(ptr noundef nonnull align 8 dereferenceable(8) %0, ptr noundef %1) #1 comdat align 2 {
  %3 = alloca ptr, align 8
  %4 = alloca ptr, align 8
  store ptr %0, ptr %3, align 8
  store ptr %1, ptr %4, align 8
  %5 = load ptr, ptr %3, align 8
  %6 = load ptr, ptr %4, align 8
  %7 = icmp ne ptr %6, null
  br i1 %7, label %8, label %11

8:                                                ; preds = %2
  %9 = load ptr, ptr %4, align 8
  %10 = call noundef ptr @_ZN5zxing7Counted6retainEv(ptr noundef nonnull align 8 dereferenceable(12) %9)
  br label %11

11:                                               ; preds = %8, %2
  %12 = getelementptr inbounds %"class.zxing::Ref.21", ptr %5, i32 0, i32 0
  %13 = load ptr, ptr %12, align 8
  %14 = icmp ne ptr %13, null
  br i1 %14, label %15, label %18

15:                                               ; preds = %11
  %16 = getelementptr inbounds %"class.zxing::Ref.21", ptr %5, i32 0, i32 0
  %17 = load ptr, ptr %16, align 8
  call void @_ZN5zxing7Counted7releaseEv(ptr noundef nonnull align 8 dereferenceable(12) %17)
  br label %18

18:                                               ; preds = %15, %11
  %19 = load ptr, ptr %4, align 8
  %20 = getelementptr inbounds %"class.zxing::Ref.21", ptr %5, i32 0, i32 0
  store ptr %19, ptr %20, align 8
  ret void
}

; Function Attrs: mustprogress nounwind uwtable
define linkonce_odr hidden void @_ZN5zxing3RefINS_6qrcode13FinderPatternEED2Ev(ptr noundef nonnull align 8 dereferenceable(8) %0) unnamed_addr #1 comdat align 2 {
  %2 = alloca ptr, align 8
  store ptr %0, ptr %2, align 8
  %3 = load ptr, ptr %2, align 8
  %4 = getelementptr inbounds %"class.zxing::Ref.21", ptr %3, i32 0, i32 0
  %5 = load ptr, ptr %4, align 8
  %6 = icmp ne ptr %5, null
  br i1 %6, label %7, label %10

7:                                                ; preds = %1
  %8 = getelementptr inbounds %"class.zxing::Ref.21", ptr %3, i32 0, i32 0
  %9 = load ptr, ptr %8, align 8
  call void @_ZN5zxing7Counted7releaseEv(ptr noundef nonnull align 8 dereferenceable(12) %9)
  br label %10

10:                                               ; preds = %7, %1
  ret void
}

; Function Attrs: mustprogress nounwind uwtable
define linkonce_odr hidden noundef nonnull align 8 dereferenceable(8) ptr @_ZN5zxing3RefINS_6qrcode13FinderPatternEEaSERKS3_(ptr noundef nonnull align 8 dereferenceable(8) %0, ptr noundef nonnull align 8 dereferenceable(8) %1) #1 comdat align 2 {
  %3 = alloca ptr, align 8
  %4 = alloca ptr, align 8
  store ptr %0, ptr %3, align 8
  store ptr %1, ptr %4, align 8
  %5 = load ptr, ptr %3, align 8
  %6 = load ptr, ptr %4, align 8
  %7 = getelementptr inbounds %"class.zxing::Ref.21", ptr %6, i32 0, i32 0
  %8 = load ptr, ptr %7, align 8
  call void @_ZN5zxing3RefINS_6qrcode13FinderPatternEE5resetEPS2_(ptr noundef nonnull align 8 dereferenceable(8) %5, ptr noundef %8)
  ret ptr %5
}

; Function Attrs: mustprogress uwtable
define internal noundef zeroext i1 @_ZN9__gnu_cxx5__ops14_Val_comp_iterIN5zxing6qrcode12_GLOBAL__N_115CountComparatorEEclINS2_3RefINS3_13FinderPatternEEENS_17__normal_iteratorIPSA_St6vectorISA_SaISA_EEEEEEbRT_T0_(ptr noundef nonnull align 1 dereferenceable(1) %0, ptr noundef nonnull align 8 dereferenceable(8) %1, ptr %2) #0 align 2 personality ptr @__gxx_personality_v0 {
  %4 = alloca %"class.__gnu_cxx::__normal_iterator.36", align 8
  %5 = alloca ptr, align 8
  %6 = alloca ptr, align 8
  %7 = alloca %"class.zxing::Ref.21", align 8
  %8 = alloca %"class.zxing::Ref.21", align 8
  %9 = alloca ptr, align 8
  %10 = alloca i32, align 4
  %11 = getelementptr inbounds %"class.__gnu_cxx::__normal_iterator.36", ptr %4, i32 0, i32 0
  store ptr %2, ptr %11, align 8
  store ptr %0, ptr %5, align 8
  store ptr %1, ptr %6, align 8
  %12 = load ptr, ptr %5, align 8
  %13 = getelementptr inbounds %"struct.__gnu_cxx::__ops::_Val_comp_iter.82", ptr %12, i32 0, i32 0
  %14 = load ptr, ptr %6, align 8
  call void @_ZN5zxing3RefINS_6qrcode13FinderPatternEEC2ERKS3_(ptr noundef nonnull align 8 dereferenceable(8) %7, ptr noundef nonnull align 8 dereferenceable(8) %14)
  %15 = call noundef nonnull align 8 dereferenceable(8) ptr @_ZNK9__gnu_cxx17__normal_iteratorIPN5zxing3RefINS1_6qrcode13FinderPatternEEESt6vectorIS5_SaIS5_EEEdeEv(ptr noundef nonnull align 8 dereferenceable(8) %4) #12
  invoke void @_ZN5zxing3RefINS_6qrcode13FinderPatternEEC2ERKS3_(ptr noundef nonnull align 8 dereferenceable(8) %8, ptr noundef nonnull align 8 dereferenceable(8) %15)
          to label %16 unwind label %19

16:                                               ; preds = %3
  %17 = invoke noundef zeroext i1 @_ZN5zxing6qrcode12_GLOBAL__N_115CountComparatorclENS_3RefINS0_13FinderPatternEEES5_(ptr noundef nonnull align 1 dereferenceable(1) %13, ptr noundef %7, ptr noundef %8)
          to label %18 unwind label %23

18:                                               ; preds = %16
  call void @_ZN5zxing3RefINS_6qrcode13FinderPatternEED2Ev(ptr noundef nonnull align 8 dereferenceable(8) %8) #12
  call void @_ZN5zxing3RefINS_6qrcode13FinderPatternEED2Ev(ptr noundef nonnull align 8 dereferenceable(8) %7) #12
  ret i1 %17

19:                                               ; preds = %3
  %20 = landingpad { ptr, i32 }
          cleanup
  %21 = extractvalue { ptr, i32 } %20, 0
  store ptr %21, ptr %9, align 8
  %22 = extractvalue { ptr, i32 } %20, 1
  store i32 %22, ptr %10, align 4
  br label %27

23:                                               ; preds = %16
  %24 = landingpad { ptr, i32 }
          cleanup
  %25 = extractvalue { ptr, i32 } %24, 0
  store ptr %25, ptr %9, align 8
  %26 = extractvalue { ptr, i32 } %24, 1
  store i32 %26, ptr %10, align 4
  call void @_ZN5zxing3RefINS_6qrcode13FinderPatternEED2Ev(ptr noundef nonnull align 8 dereferenceable(8) %8) #12
  br label %27

27:                                               ; preds = %23, %19
  call void @_ZN5zxing3RefINS_6qrcode13FinderPatternEED2Ev(ptr noundef nonnull align 8 dereferenceable(8) %7) #12
  br label %28

28:                                               ; preds = %27
  %29 = load ptr, ptr %9, align 8
  %30 = load i32, ptr %10, align 4
  %31 = insertvalue { ptr, i32 } poison, ptr %29, 0
  %32 = insertvalue { ptr, i32 } %31, i32 %30, 1
  resume { ptr, i32 } %32
}

; Function Attrs: mustprogress nounwind uwtable
define linkonce_odr hidden noundef nonnull align 8 dereferenceable(8) ptr @_ZN9__gnu_cxx17__normal_iteratorIPN5zxing3RefINS1_6qrcode13FinderPatternEEESt6vectorIS5_SaIS5_EEEmmEv(ptr noundef nonnull align 8 dereferenceable(8) %0) #1 comdat align 2 {
  %2 = alloca ptr, align 8
  store ptr %0, ptr %2, align 8
  %3 = load ptr, ptr %2, align 8
  %4 = getelementptr inbounds %"class.__gnu_cxx::__normal_iterator.36", ptr %3, i32 0, i32 0
  %5 = load ptr, ptr %4, align 8
  %6 = getelementptr inbounds %"class.zxing::Ref.21", ptr %5, i32 -1
  store ptr %6, ptr %4, align 8
  ret ptr %3
}

; Function Attrs: mustprogress uwtable
define linkonce_odr hidden void @_ZN5zxing3RefINS_6qrcode13FinderPatternEEC2ERKS3_(ptr noundef nonnull align 8 dereferenceable(8) %0, ptr noundef nonnull align 8 dereferenceable(8) %1) unnamed_addr #0 comdat align 2 {
  %3 = alloca ptr, align 8
  %4 = alloca ptr, align 8
  store ptr %0, ptr %3, align 8
  store ptr %1, ptr %4, align 8
  %5 = load ptr, ptr %3, align 8
  %6 = getelementptr inbounds %"class.zxing::Ref.21", ptr %5, i32 0, i32 0
  store ptr null, ptr %6, align 8
  %7 = load ptr, ptr %4, align 8
  %8 = getelementptr inbounds %"class.zxing::Ref.21", ptr %7, i32 0, i32 0
  %9 = load ptr, ptr %8, align 8
  call void @_ZN5zxing3RefINS_6qrcode13FinderPatternEE5resetEPS2_(ptr noundef nonnull align 8 dereferenceable(8) %5, ptr noundef %9)
  ret void
}

; Function Attrs: mustprogress nounwind uwtable
define linkonce_odr hidden noundef nonnull align 8 dereferenceable(8) ptr @_ZNK9__gnu_cxx17__normal_iteratorIPN5zxing3RefINS1_6qrcode13FinderPatternEEESt6vectorIS5_SaIS5_EEEdeEv(ptr noundef nonnull align 8 dereferenceable(8) %0) #1 comdat align 2 {
  %2 = alloca ptr, align 8
  store ptr %0, ptr %2, align 8
  %3 = load ptr, ptr %2, align 8
  %4 = getelementptr inbounds %"class.__gnu_cxx::__normal_iterator.36", ptr %3, i32 0, i32 0
  %5 = load ptr, ptr %4, align 8
  ret ptr %5
}

; Function Attrs: mustprogress uwtable
define internal void @_ZSt25__unguarded_linear_insertIN9__gnu_cxx17__normal_iteratorIPN5zxing3RefINS2_6qrcode13FinderPatternEEESt6vectorIS6_SaIS6_EEEENS0_5__ops14_Val_comp_iterINS4_12_GLOBAL__N_115CountComparatorEEEEvT_T0_(ptr %0) #0 personality ptr @__gxx_personality_v0 {
  %2 = alloca %"class.__gnu_cxx::__normal_iterator.36", align 8
  %3 = alloca %"struct.__gnu_cxx::__ops::_Val_comp_iter.82", align 1
  %4 = alloca %"class.zxing::Ref.21", align 8
  %5 = alloca %"class.__gnu_cxx::__normal_iterator.36", align 8
  %6 = alloca %"class.__gnu_cxx::__normal_iterator.36", align 8
  %7 = alloca ptr, align 8
  %8 = alloca i32, align 4
  %9 = getelementptr inbounds %"class.__gnu_cxx::__normal_iterator.36", ptr %2, i32 0, i32 0
  store ptr %0, ptr %9, align 8
  %10 = call noundef nonnull align 8 dereferenceable(8) ptr @_ZNK9__gnu_cxx17__normal_iteratorIPN5zxing3RefINS1_6qrcode13FinderPatternEEESt6vectorIS5_SaIS5_EEEdeEv(ptr noundef nonnull align 8 dereferenceable(8) %2) #12
  call void @_ZN5zxing3RefINS_6qrcode13FinderPatternEEC2ERKS3_(ptr noundef nonnull align 8 dereferenceable(8) %4, ptr noundef nonnull align 8 dereferenceable(8) %10)
  call void @llvm.memcpy.p0.p0.i64(ptr align 8 %5, ptr align 8 %2, i64 8, i1 false)
  %11 = call noundef nonnull align 8 dereferenceable(8) ptr @_ZN9__gnu_cxx17__normal_iteratorIPN5zxing3RefINS1_6qrcode13FinderPatternEEESt6vectorIS5_SaIS5_EEEmmEv(ptr noundef nonnull align 8 dereferenceable(8) %5) #12
  br label %12

12:                                               ; preds = %17, %1
  call void @llvm.memcpy.p0.p0.i64(ptr align 8 %6, ptr align 8 %5, i64 8, i1 false)
  %13 = getelementptr inbounds %"class.__gnu_cxx::__normal_iterator.36", ptr %6, i32 0, i32 0
  %14 = load ptr, ptr %13, align 8
  %15 = invoke noundef zeroext i1 @_ZN9__gnu_cxx5__ops14_Val_comp_iterIN5zxing6qrcode12_GLOBAL__N_115CountComparatorEEclINS2_3RefINS3_13FinderPatternEEENS_17__normal_iteratorIPSA_St6vectorISA_SaISA_EEEEEEbRT_T0_(ptr noundef nonnull align 1 dereferenceable(1) %3, ptr noundef nonnull align 8 dereferenceable(8) %4, ptr %14)
          to label %16 unwind label %22

16:                                               ; preds = %12
  br i1 %15, label %17, label %26

17:                                               ; preds = %16
  %18 = call noundef nonnull align 8 dereferenceable(8) ptr @_ZNK9__gnu_cxx17__normal_iteratorIPN5zxing3RefINS1_6qrcode13FinderPatternEEESt6vectorIS5_SaIS5_EEEdeEv(ptr noundef nonnull align 8 dereferenceable(8) %5) #12
  %19 = call noundef nonnull align 8 dereferenceable(8) ptr @_ZNK9__gnu_cxx17__normal_iteratorIPN5zxing3RefINS1_6qrcode13FinderPatternEEESt6vectorIS5_SaIS5_EEEdeEv(ptr noundef nonnull align 8 dereferenceable(8) %2) #12
  %20 = call noundef nonnull align 8 dereferenceable(8) ptr @_ZN5zxing3RefINS_6qrcode13FinderPatternEEaSERKS3_(ptr noundef nonnull align 8 dereferenceable(8) %19, ptr noundef nonnull align 8 dereferenceable(8) %18)
  call void @llvm.memcpy.p0.p0.i64(ptr align 8 %2, ptr align 8 %5, i64 8, i1 false)
  %21 = call noundef nonnull align 8 dereferenceable(8) ptr @_ZN9__gnu_cxx17__normal_iteratorIPN5zxing3RefINS1_6qrcode13FinderPatternEEESt6vectorIS5_SaIS5_EEEmmEv(ptr noundef nonnull align 8 dereferenceable(8) %5) #12
  br label %12, !llvm.loop !123

22:                                               ; preds = %12
  %23 = landingpad { ptr, i32 }
          cleanup
  %24 = extractvalue { ptr, i32 } %23, 0
  store ptr %24, ptr %7, align 8
  %25 = extractvalue { ptr, i32 } %23, 1
  store i32 %25, ptr %8, align 4
  call void @_ZN5zxing3RefINS_6qrcode13FinderPatternEED2Ev(ptr noundef nonnull align 8 dereferenceable(8) %4) #12
  br label %29

26:                                               ; preds = %16
  %27 = call noundef nonnull align 8 dereferenceable(8) ptr @_ZNK9__gnu_cxx17__normal_iteratorIPN5zxing3RefINS1_6qrcode13FinderPatternEEESt6vectorIS5_SaIS5_EEEdeEv(ptr noundef nonnull align 8 dereferenceable(8) %2) #12
  %28 = call noundef nonnull align 8 dereferenceable(8) ptr @_ZN5zxing3RefINS_6qrcode13FinderPatternEEaSERKS3_(ptr noundef nonnull align 8 dereferenceable(8) %27, ptr noundef nonnull align 8 dereferenceable(8) %4)
  call void @_ZN5zxing3RefINS_6qrcode13FinderPatternEED2Ev(ptr noundef nonnull align 8 dereferenceable(8) %4) #12
  ret void

29:                                               ; preds = %22
  %30 = load ptr, ptr %7, align 8
  %31 = load i32, ptr %8, align 4
  %32 = insertvalue { ptr, i32 } poison, ptr %30, 0
  %33 = insertvalue { ptr, i32 } %32, i32 %31, 1
  resume { ptr, i32 } %33
}